; ModuleID = 'source-C-CXX/6/1088.c'
source_filename = "source-C-CXX/6/1088.c"
target datalayout = "e-m:e-p270:32:32-p271:32:32-p272:64:64-i64:64-f80:128-n8:16:32:64-S128"
target triple = "x86_64-pc-linux-gnu"

@.str = private unnamed_addr constant [9 x i8] c"%s %s %s\00", align 1
@.str.1 = private unnamed_addr constant [3 x i8] c"%s\00", align 1

; Function Attrs: nofree nounwind sspstrong uwtable
define dso_local void @main() local_unnamed_addr #0 {
  %1 = alloca [256 x i8], align 16
  %2 = alloca [256 x i8], align 16
  %3 = alloca [256 x i8], align 16
  %4 = getelementptr inbounds [256 x i8], [256 x i8]* %1, i64 0, i64 0
  call void @llvm.lifetime.start.p0i8(i64 256, i8* nonnull %4) #6
  %5 = getelementptr inbounds [256 x i8], [256 x i8]* %2, i64 0, i64 0
  call void @llvm.lifetime.start.p0i8(i64 256, i8* nonnull %5) #6
  %6 = getelementptr inbounds [256 x i8], [256 x i8]* %3, i64 0, i64 0
  call void @llvm.lifetime.start.p0i8(i64 256, i8* nonnull %6) #6
  %7 = call i32 (i8*, ...) @__isoc99_scanf(i8* getelementptr inbounds ([9 x i8], [9 x i8]* @.str, i64 0, i64 0), i8* nonnull %4, i8* nonnull %5, i8* nonnull %6)
  %8 = call i64 @strlen(i8* noundef nonnull %4) #7
  %9 = trunc i64 %8 to i32
  %10 = call i64 @strlen(i8* noundef nonnull %5) #7
  %11 = trunc i64 %10 to i32
  %12 = icmp sgt i32 %9, 0
  br i1 %12, label %13, label %81

13:                                               ; preds = %0
  %14 = icmp sgt i32 %11, 0
  br i1 %14, label %15, label %74

15:                                               ; preds = %13
  %16 = and i64 %8, 4294967295
  %17 = and i64 %10, 4294967295
  %18 = icmp ult i64 %17, 8
  %19 = and i64 %10, 7
  %20 = sub nsw i64 %17, %19
  %21 = icmp eq i64 %19, 0
  br label %22

22:                                               ; preds = %15, %55
  %23 = phi i64 [ 0, %15 ], [ %56, %55 ]
  br i1 %18, label %52, label %24

24:                                               ; preds = %22, %24
  %25 = phi i64 [ %47, %24 ], [ 0, %22 ]
  %26 = phi <4 x i32> [ %45, %24 ], [ zeroinitializer, %22 ]
  %27 = phi <4 x i32> [ %46, %24 ], [ zeroinitializer, %22 ]
  %28 = getelementptr inbounds [256 x i8], [256 x i8]* %2, i64 0, i64 %25
  %29 = bitcast i8* %28 to <4 x i8>*
  %30 = load <4 x i8>, <4 x i8>* %29, align 8, !tbaa !5
  %31 = getelementptr inbounds i8, i8* %28, i64 4
  %32 = bitcast i8* %31 to <4 x i8>*
  %33 = load <4 x i8>, <4 x i8>* %32, align 4, !tbaa !5
  %34 = add nuw nsw i64 %25, %23
  %35 = getelementptr inbounds [256 x i8], [256 x i8]* %1, i64 0, i64 %34
  %36 = bitcast i8* %35 to <4 x i8>*
  %37 = load <4 x i8>, <4 x i8>* %36, align 1, !tbaa !5
  %38 = getelementptr inbounds i8, i8* %35, i64 4
  %39 = bitcast i8* %38 to <4 x i8>*
  %40 = load <4 x i8>, <4 x i8>* %39, align 1, !tbaa !5
  %41 = icmp eq <4 x i8> %30, %37
  %42 = icmp eq <4 x i8> %33, %40
  %43 = zext <4 x i1> %41 to <4 x i32>
  %44 = zext <4 x i1> %42 to <4 x i32>
  %45 = add <4 x i32> %26, %43
  %46 = add <4 x i32> %27, %44
  %47 = add nuw i64 %25, 8
  %48 = icmp eq i64 %47, %20
  br i1 %48, label %49, label %24, !llvm.loop !8

49:                                               ; preds = %24
  %50 = add <4 x i32> %46, %45
  %51 = call i32 @llvm.vector.reduce.add.v4i32(<4 x i32> %50)
  br i1 %21, label %71, label %52

52:                                               ; preds = %22, %49
  %53 = phi i64 [ 0, %22 ], [ %20, %49 ]
  %54 = phi i32 [ 0, %22 ], [ %51, %49 ]
  br label %58

55:                                               ; preds = %71
  %56 = add nuw nsw i64 %23, 1
  %57 = icmp eq i64 %56, %16
  br i1 %57, label %81, label %22, !llvm.loop !11

58:                                               ; preds = %52, %58
  %59 = phi i64 [ %69, %58 ], [ %53, %52 ]
  %60 = phi i32 [ %68, %58 ], [ %54, %52 ]
  %61 = getelementptr inbounds [256 x i8], [256 x i8]* %2, i64 0, i64 %59
  %62 = load i8, i8* %61, align 1, !tbaa !5
  %63 = add nuw nsw i64 %59, %23
  %64 = getelementptr inbounds [256 x i8], [256 x i8]* %1, i64 0, i64 %63
  %65 = load i8, i8* %64, align 1, !tbaa !5
  %66 = icmp eq i8 %62, %65
  %67 = zext i1 %66 to i32
  %68 = add nuw nsw i32 %60, %67
  %69 = add nuw nsw i64 %59, 1
  %70 = icmp eq i64 %69, %17
  br i1 %70, label %71, label %58, !llvm.loop !12

71:                                               ; preds = %58, %49
  %72 = phi i32 [ %51, %49 ], [ %68, %58 ]
  %73 = icmp eq i32 %72, %11
  br i1 %73, label %76, label %55

74:                                               ; preds = %13
  %75 = icmp eq i32 %11, 0
  br i1 %75, label %91, label %81

76:                                               ; preds = %71
  %77 = trunc i64 %23 to i32
  %78 = icmp eq i32 %77, 0
  br i1 %78, label %91, label %79

79:                                               ; preds = %76
  %80 = and i64 %23, 4294967295
  br label %83

81:                                               ; preds = %55, %74, %0
  %82 = call i32 (i8*, ...) @printf(i8* nonnull dereferenceable(1) getelementptr inbounds ([3 x i8], [3 x i8]* @.str.1, i64 0, i64 0), i8* nonnull %4)
  br label %108

83:                                               ; preds = %79, %83
  %84 = phi i64 [ 0, %79 ], [ %89, %83 ]
  %85 = getelementptr inbounds [256 x i8], [256 x i8]* %1, i64 0, i64 %84
  %86 = load i8, i8* %85, align 1, !tbaa !5
  %87 = sext i8 %86 to i32
  %88 = call i32 @putchar(i32 %87)
  %89 = add nuw nsw i64 %84, 1
  %90 = icmp eq i64 %89, %80
  br i1 %90, label %91, label %83, !llvm.loop !14

91:                                               ; preds = %83, %74, %76
  %92 = phi i32 [ 0, %76 ], [ 0, %74 ], [ %77, %83 ]
  %93 = call i32 (i8*, ...) @printf(i8* nonnull dereferenceable(1) getelementptr inbounds ([3 x i8], [3 x i8]* @.str.1, i64 0, i64 0), i8* nonnull %6)
  %94 = add i32 %92, %11
  %95 = icmp slt i32 %94, %9
  br i1 %95, label %96, label %108

96:                                               ; preds = %91
  %97 = sext i32 %94 to i64
  %98 = shl i64 %8, 32
  %99 = ashr exact i64 %98, 32
  br label %100

100:                                              ; preds = %96, %100
  %101 = phi i64 [ %97, %96 ], [ %106, %100 ]
  %102 = getelementptr inbounds [256 x i8], [256 x i8]* %1, i64 0, i64 %101
  %103 = load i8, i8* %102, align 1, !tbaa !5
  %104 = sext i8 %103 to i32
  %105 = call i32 @putchar(i32 %104)
  %106 = add nsw i64 %101, 1
  %107 = icmp slt i64 %106, %99
  br i1 %107, label %100, label %108, !llvm.loop !15

108:                                              ; preds = %100, %91, %81
  call void @llvm.lifetime.end.p0i8(i64 256, i8* nonnull %6) #6
  call void @llvm.lifetime.end.p0i8(i64 256, i8* nonnull %5) #6
  call void @llvm.lifetime.end.p0i8(i64 256, i8* nonnull %4) #6
  ret void
}

; Function Attrs: argmemonly mustprogress nofree nosync nounwind willreturn
declare void @llvm.lifetime.start.p0i8(i64 immarg, i8* nocapture) #1

; Function Attrs: nofree nounwind
declare noundef i32 @__isoc99_scanf(i8* nocapture noundef readonly, ...) local_unnamed_addr #2

; Function Attrs: argmemonly mustprogress nofree nounwind readonly willreturn
declare i64 @strlen(i8* nocapture) local_unnamed_addr #3

; Function Attrs: nofree nounwind
declare noundef i32 @printf(i8* nocapture noundef readonly, ...) local_unnamed_addr #2

; Function Attrs: argmemonly mustprogress nofree nosync nounwind willreturn
declare void @llvm.lifetime.end.p0i8(i64 immarg, i8* nocapture) #1

; Function Attrs: nofree nounwind
declare noundef i32 @putchar(i32 noundef) local_unnamed_addr #4

; Function Attrs: nofree nosync nounwind readnone willreturn
declare i32 @llvm.vector.reduce.add.v4i32(<4 x i32>) #5


!llvm.module.flags = !{!0, !1, !2, !3}
!llvm.ident = !{!4}

!0 = !{i32 1, !"wchar_size", i32 4}
!1 = !{i32 7, !"PIC Level", i32 2}
!2 = !{i32 7, !"PIE Level", i32 2}
!3 = !{i32 7, !"uwtable", i32 1}
!4 = !{!"clang version 13.0.0"}
!5 = !{!6, !6, i64 0}
!6 = !{!"omnipotent char", !7, i64 0}
!7 = !{!"Simple C/C++ TBAA"}
!8 = distinct !{!8, !9, !10}
!9 = !{!"llvm.loop.mustprogress"}
!10 = !{!"llvm.loop.isvectorized", i32 1}
!11 = distinct !{!11, !9}
!12 = distinct !{!12, !9, !13, !10}
!13 = !{!"llvm.loop.unroll.runtime.disable"}
!14 = distinct !{!14, !9}
!15 = distinct !{!15, !9}
